Certificate:
    Data:
        Version: 3 (0x2)
        Serial Number:
            e3:19:1d:40:6c:d6:94:17:38:40:04:c2:f8:8b:52:ab
        Signature Algorithm: sha256WithRSAEncryption
        Issuer: CN=vpn-ca
        Validity
            Not Before: Feb 26 08:14:51 2026 GMT
            Not After : May 31 08:14:51 2028 GMT
        Subject: CN=client1.damin.tld
        Subject Public Key Info:
            Public Key Algorithm: rsaEncryption
                Public-Key: (2048 bit)
                Modulus:
                    00:91:01:21:c9:c7:db:70:8d:5f:fe:ba:23:0d:5c:
                    41:2c:51:97:bd:a7:35:cd:11:96:e5:26:21:c9:a8:
                    a6:90:31:1a:c6:6f:a8:76:84:86:c0:77:8e:8d:68:
                    25:a0:64:ea:e5:26:21:67:ae:49:e6:4a:70:18:3f:
                    36:6a:fc:b1:2c:32:c2:7f:3f:9e:49:b8:6e:82:01:
                    c1:3c:60:4b:22:b5:75:93:cd:d1:7b:85:9c:83:ac:
                    b8:8b:3d:bd:c9:47:7e:9f:0c:6b:71:f3:e9:10:70:
                    2e:b3:a5:6b:50:b8:ca:a2:4c:db:a0:38:1e:10:23:
                    6f:93:7a:b5:0a:d8:0a:15:ae:0b:13:00:d2:4e:1a:
                    ba:1d:bf:e0:fb:f1:42:6c:bb:af:e6:80:06:c3:fd:
                    37:cd:10:fa:f2:44:35:bb:18:cc:e4:fc:f7:49:85:
                    51:8d:27:5d:14:97:97:8b:b6:bc:e2:43:a5:b0:3a:
                    5f:65:54:d3:2a:a0:ed:67:f6:8a:19:42:e4:bb:47:
                    b0:bd:d0:c6:5d:d2:ed:f1:62:9b:72:3f:db:2c:a6:
                    0a:38:6a:ee:55:d5:ca:60:af:68:e4:4d:14:df:76:
                    74:45:ef:12:87:46:05:e8:20:c9:57:d4:ac:67:6b:
                    ad:cb:a5:4a:bb:48:a0:45:e2:58:04:87:45:c4:ad:
                    5f:ff
                Exponent: 65537 (0x10001)
        X509v3 extensions:
            X509v3 Basic Constraints: 
                CA:FALSE
            X509v3 Subject Key Identifier: 
                31:0C:E0:A5:74:93:94:7B:BB:45:D7:8D:FF:30:3A:33:49:A4:E1:1A
            X509v3 Authority Key Identifier: 
                keyid:FB:0D:0A:BC:16:4D:C9:55:81:C1:65:D1:A8:A6:F2:9E:8E:C1:6A:76
                DirName:/CN=vpn-ca
                serial:2F:41:3B:FD:7C:BB:A2:3F:B5:26:25:85:30:82:49:57:9D:27:D5:2D
            X509v3 Extended Key Usage: 
                TLS Web Client Authentication
            X509v3 Key Usage: 
                Digital Signature
    Signature Algorithm: sha256WithRSAEncryption
    Signature Value:
        c6:2c:93:bc:5a:74:a5:cc:46:50:25:6f:29:db:ff:9f:f3:a6:
        3d:6e:78:4b:9a:d1:74:d3:d7:33:cf:68:ef:bb:4f:72:8f:63:
        e9:9e:87:b5:24:43:ec:b1:0e:28:3a:10:98:d3:5e:62:27:f2:
        f4:80:12:7a:51:c7:f0:00:7e:19:99:5f:e9:8f:38:ce:9f:50:
        92:9e:90:c6:1b:b3:d7:fd:99:63:2e:d7:a0:65:14:b4:9f:4a:
        34:50:60:d6:0a:32:e3:f1:65:d6:14:a4:df:ad:d5:a0:ea:8d:
        0f:08:3c:f0:79:73:ac:78:54:7a:81:a9:f3:4f:b2:08:7b:16:
        bf:4c:cc:fe:c0:58:fc:47:00:c3:4c:2a:8f:c6:9a:38:e7:78:
        37:8d:68:e4:8c:74:85:52:24:f9:a7:23:73:5e:8e:66:d2:3f:
        99:47:9d:8a:1f:f2:61:14:1d:d6:16:86:46:30:2d:57:55:bd:
        b6:ca:d2:05:93:ed:80:2c:da:d3:87:6b:89:ff:f2:21:c2:ba:
        48:91:79:0e:f5:49:61:be:fc:61:d9:d7:2c:e0:c1:37:7b:07:
        bb:d3:51:71:99:4e:89:af:13:a8:73:4f:50:67:de:b4:1f:e7:
        60:98:a7:29:08:b1:66:f1:21:fb:9c:ad:88:6a:42:b4:30:31:
        43:aa:3b:9b
-----BEGIN CERTIFICATE-----
MIIDVjCCAj6gAwIBAgIRAOMZHUBs1pQXOEAEwviLUqswDQYJKoZIhvcNAQELBQAw
ETEPMA0GA1UEAwwGdnBuLWNhMB4XDTI2MDIyNjA4MTQ1MVoXDTI4MDUzMTA4MTQ1
MVowHDEaMBgGA1UEAwwRY2xpZW50MS5kYW1pbi50bGQwggEiMA0GCSqGSIb3DQEB
AQUAA4IBDwAwggEKAoIBAQCRASHJx9twjV/+uiMNXEEsUZe9pzXNEZblJiHJqKaQ
MRrGb6h2hIbAd46NaCWgZOrlJiFnrknmSnAYPzZq/LEsMsJ/P55JuG6CAcE8YEsi
tXWTzdF7hZyDrLiLPb3JR36fDGtx8+kQcC6zpWtQuMqiTNugOB4QI2+TerUK2AoV
rgsTANJOGrodv+D78UJsu6/mgAbD/TfNEPryRDW7GMzk/PdJhVGNJ10Ul5eLtrzi
Q6WwOl9lVNMqoO1n9ooZQuS7R7C90MZd0u3xYptyP9sspgo4au5V1cpgr2jkTRTf
dnRF7xKHRgXoIMlX1Kxna63LpUq7SKBF4lgEh0XErV//AgMBAAGjgZ0wgZowCQYD
VR0TBAIwADAdBgNVHQ4EFgQUMQzgpXSTlHu7RdeN/zA6M0mk4RowTAYDVR0jBEUw
Q4AU+w0KvBZNyVWBwWXRqKbyno7BanahFaQTMBExDzANBgNVBAMMBnZwbi1jYYIU
L0E7/Xy7oj+1JiWFMIJJV50n1S0wEwYDVR0lBAwwCgYIKwYBBQUHAwIwCwYDVR0P
BAQDAgeAMA0GCSqGSIb3DQEBCwUAA4IBAQDGLJO8WnSlzEZQJW8p2/+f86Y9bnhL
mtF009czz2jvu09yj2Ppnoe1JEPssQ4oOhCY015iJ/L0gBJ6UcfwAH4ZmV/pjzjO
n1CSnpDGG7PX/ZljLtegZRS0n0o0UGDWCjLj8WXWFKTfrdWg6o0PCDzweXOseFR6
ganzT7IIexa/TMz+wFj8RwDDTCqPxpo453g3jWjkjHSFUiT5pyNzXo5m0j+ZR52K
H/JhFB3WFoZGMC1XVb22ytIFk+2ALNrTh2uJ//IhwrpIkXkO9Ulhvvxh2dcs4ME3
ewe701FxmU6JrxOoc09QZ960H+dgmKcpCLFm8SH7nK2IakK0MDFDqjub
-----END CERTIFICATE-----
